; Function Attrs: mustprogress nounwind willreturn uwtable
define internal fastcc void @Vec_IntGrow(ptr noundef captures(none) %0, i32 noundef %1) unnamed_addr #2 {
  %3 = load i32, ptr %0, align 8
  %.not = icmp slt i32 %3, %1
  br i1 %.not, label %4, label %15

4:                                                ; preds = %2
  %5 = getelementptr inbounds nuw i8, ptr %0, i64 8
  %6 = load ptr, ptr %5, align 8
  %.not9 = icmp eq ptr %6, null
  %7 = sext i32 %1 to i64
  %8 = shl nsw i64 %7, 2
  br i1 %.not9, label %11, label %9

9:                                                ; preds = %4
  %10 = tail call ptr @realloc(ptr noundef nonnull %6, i64 noundef %8) #7
  br label %13

11:                                               ; preds = %4
  %12 = tail call noalias ptr @malloc(i64 noundef %8) #8
  br label %13

13:                                               ; preds = %11, %9
  %14 = phi ptr [ %10, %9 ], [ %12, %11 ]
  store ptr %14, ptr %5, align 8
  store i32 %1, ptr %0, align 8
  br label %15

15:                                               ; preds = %2, %13
  ret void
}